; Function Attrs: nounwind uwtable
define noalias noundef ptr @Aig_ManVecRandSubset(ptr noundef readonly captures(none) %0, i32 noundef %1) local_unnamed_addr #0 {
  %3 = tail call noalias dereferenceable_or_null(16) ptr @malloc(i64 noundef 16) #16
  %4 = getelementptr inbounds nuw i8, ptr %0, i64 4
  %5 = load i32, ptr %4, align 4
  %6 = load i32, ptr %0, align 8
  store i32 %6, ptr %3, align 8
  %.not.i = icmp eq i32 %6, 0
  br i1 %.not.i, label %Vec_PtrDup.exit, label %7

7:                                                ; preds = %2
  %8 = sext i32 %6 to i64
  %9 = shl nsw i64 %8, 3
  %10 = tail call noalias ptr @malloc(i64 noundef %9) #16
  br label %Vec_PtrDup.exit

Vec_PtrDup.exit:                                  ; preds = %2, %7
  %.val9 = phi ptr [ %10, %7 ], [ null, %2 ]
  %11 = getelementptr inbounds nuw i8, ptr %3, i64 8
  store ptr %.val9, ptr %11, align 8
  %12 = getelementptr inbounds nuw i8, ptr %0, i64 8
  %13 = load ptr, ptr %12, align 8
  %14 = sext i32 %5 to i64
  %15 = shl nsw i64 %14, 3
  tail call void @llvm.memcpy.p0.p0.i64(ptr align 8 %.val9, ptr align 8 %13, i64 %15, i1 false)
  %16 = icmp sgt i32 %5, %1
  br i1 %16, label %.lr.ph.preheader, label %._crit_edge

.lr.ph.preheader:                                 ; preds = %Vec_PtrDup.exit
  %17 = sext i32 %1 to i64
  br label %.lr.ph

.lr.ph:                                           ; preds = %.lr.ph.preheader, %Vec_PtrRemove.exit
  %indvars.iv = phi i64 [ %14, %.lr.ph.preheader ], [ %indvars.iv.next, %Vec_PtrRemove.exit ]
  %18 = tail call i32 @Aig_ManRandom(i32 noundef 0) #14
  %19 = trunc nsw i64 %indvars.iv to i32
  %20 = urem i32 %18, %19
  %21 = sext i32 %20 to i64
  %22 = getelementptr inbounds ptr, ptr %.val9, i64 %21
  %23 = load ptr, ptr %22, align 8
  %24 = and i64 %indvars.iv, 4294967295
  %smin.i = tail call i32 @llvm.smin.i32(i32 %19, i32 0)
  br label %25

25:                                               ; preds = %28, %.lr.ph
  %indvars.iv.i = phi i64 [ %29, %28 ], [ %24, %.lr.ph ]
  %26 = trunc nuw i64 %indvars.iv.i to i32
  %27 = icmp sgt i32 %26, 0
  br i1 %27, label %28, label %33

28:                                               ; preds = %25
  %29 = add nsw i64 %indvars.iv.i, -1
  %30 = getelementptr inbounds nuw ptr, ptr %.val9, i64 %29
  %31 = load ptr, ptr %30, align 8
  %32 = icmp eq ptr %31, %23
  br i1 %32, label %33, label %25, !llvm.loop !12

33:                                               ; preds = %28, %25
  %.0.in.lcssa.i = phi i32 [ %26, %28 ], [ %smin.i, %25 ]
  %34 = sext i32 %.0.in.lcssa.i to i64
  %35 = icmp sgt i64 %indvars.iv, %34
  br i1 %35, label %.lr.ph.i, label %Vec_PtrRemove.exit

.lr.ph.i:                                         ; preds = %33, %.lr.ph.i
  %indvars.iv19.i = phi i64 [ %indvars.iv.next20.i, %.lr.ph.i ], [ %34, %33 ]
  %36 = getelementptr inbounds ptr, ptr %.val9, i64 %indvars.iv19.i
  %37 = load ptr, ptr %36, align 8
  %38 = getelementptr i8, ptr %36, i64 -8
  store ptr %37, ptr %38, align 8
  %indvars.iv.next20.i = add nsw i64 %indvars.iv19.i, 1
  %39 = icmp slt i64 %indvars.iv.next20.i, %indvars.iv
  br i1 %39, label %.lr.ph.i, label %Vec_PtrRemove.exit, !llvm.loop !13

Vec_PtrRemove.exit:                               ; preds = %.lr.ph.i, %33
  %indvars.iv.next = add nsw i64 %indvars.iv, -1
  %40 = icmp sgt i64 %indvars.iv.next, %17
  br i1 %40, label %.lr.ph, label %._crit_edge.loopexit, !llvm.loop !14

._crit_edge.loopexit:                             ; preds = %Vec_PtrRemove.exit
  %41 = trunc nsw i64 %indvars.iv.next to i32
  br label %._crit_edge

._crit_edge:                                      ; preds = %._crit_edge.loopexit, %Vec_PtrDup.exit
  %.lcssa = phi i32 [ %5, %Vec_PtrDup.exit ], [ %41, %._crit_edge.loopexit ]
  %42 = getelementptr inbounds nuw i8, ptr %3, i64 4
  store i32 %.lcssa, ptr %42, align 4
  ret ptr %3
}